target datalayout = "e-m:e-p270:32:32-p271:32:32-p272:64:64-i64:64-i128:128-f80:128-n8:16:32:64-S128"
target triple = "x86_64-pc-linux-gnu"

%struct.XLogCtlData = type { %struct.XLogCtlInsert, %struct.XLogwrtRqst, i64, %struct.FullTransactionId, i64, i64, i64, %struct.pg_atomic_uint64, i64, i64, %struct.pg_atomic_uint64, %struct.pg_atomic_uint64, %struct.pg_atomic_uint64, i64, ptr, ptr, i32, i32, i32, i32, i8, i8, i64, i64, %struct.CheckPoint, i64, i8 }
%struct.XLogCtlInsert = type { i8, i64, i64, [128 x i8], i64, i8, i32, i64, ptr }
%struct.XLogwrtRqst = type { i64, i64 }
%struct.FullTransactionId = type { i64 }
%struct.pg_atomic_uint64 = type { i64 }
%struct.CheckPoint = type { i64, i32, i32, i8, i32, %struct.FullTransactionId, i32, i32, i32, i32, i32, i32, i32, i64, i32, i32, i32 }
%struct.LWLock = type { i16, %struct.pg_atomic_uint32, %struct.proclist_head }
%struct.pg_atomic_uint32 = type { i32 }
%struct.proclist_head = type { i32, i32 }
%union.LWLockPadded = type { %struct.LWLock, [112 x i8] }

@XLogCtl = internal global ptr null, align 8
@MainLWLockArray = external global ptr, align 8

; Function Attrs: nounwind uwtable
define dso_local zeroext i1 @IsInstallXLogFileSegmentActive() #0 {
  %1 = alloca i8, align 1
  call void @llvm.lifetime.start.p0(i64 1, ptr %1) #16
  %2 = load ptr, ptr @MainLWLockArray, align 8
  %3 = getelementptr inbounds %union.LWLockPadded, ptr %2, i64 9
  %4 = call zeroext i1 @LWLockAcquire(ptr noundef %3, i32 noundef 1)
  %5 = load ptr, ptr @XLogCtl, align 8
  %6 = getelementptr inbounds nuw %struct.XLogCtlData, ptr %5, i32 0, i32 20
  %7 = load i8, ptr %6, align 8, !range !4, !noundef !5
  %8 = trunc i8 %7 to i1
  %9 = zext i1 %8 to i8
  store i8 %9, ptr %1, align 1
  %10 = load ptr, ptr @MainLWLockArray, align 8
  %11 = getelementptr inbounds %union.LWLockPadded, ptr %10, i64 9
  call void @LWLockRelease(ptr noundef %11)
  %12 = load i8, ptr %1, align 1, !range !4, !noundef !5
  %13 = trunc i8 %12 to i1
  call void @llvm.lifetime.end.p0(i64 1, ptr %1) #16
  ret i1 %13
}