; Function Attrs: nounwind uwtable
define dso_local zeroext i1 @IsInstallXLogFileSegmentActive() local_unnamed_addr #0 {
  %1 = load ptr, ptr @MainLWLockArray, align 8
  %2 = getelementptr inbounds nuw i8, ptr %1, i64 1152
  %3 = tail call zeroext i1 @LWLockAcquire(ptr noundef nonnull %2, i32 noundef 1) #26
  %4 = load ptr, ptr @XLogCtl, align 8
  %5 = getelementptr inbounds nuw i8, ptr %4, i64 328
  %6 = load i8, ptr %5, align 8, !range !4, !noundef !5
  %7 = trunc nuw i8 %6 to i1
  %8 = load ptr, ptr @MainLWLockArray, align 8
  %9 = getelementptr inbounds nuw i8, ptr %8, i64 1152
  tail call void @LWLockRelease(ptr noundef nonnull %9) #26
  ret i1 %7
}